target datalayout = "e-m:e-p270:32:32-p271:32:32-p272:64:64-i64:64-i128:128-f80:128-n8:16:32:64-S128"
target triple = "x86_64-pc-linux-gnu"

@hf_ieee802154_psie_eb_filter = internal global i32 0, align 4
@hf_ieee802154_psie_eb_filter_lqi_min = internal global i32 0, align 4
@hf_ieee802154_psie_eb_filter_percent_prob = internal global i32 0, align 4
@hf_ieee802154_psie_eb_filter_attr_id_bitmap = internal global i32 0, align 4
@ett_ieee802154_eb_filter = internal global i32 0, align 4
@ett_ieee802154_eb_filter_bitmap = internal global i32 0, align 4
@dissect_802154_eb_filter.fields_eb_filter = internal constant [5 x ptr] [ptr @hf_ieee802154_psie_eb_filter_pjoin, ptr @hf_ieee802154_psie_eb_filter_lqi, ptr @hf_ieee802154_psie_eb_filter_percent, ptr @hf_ieee802154_psie_eb_filter_attr_id, ptr null], align 16

; Function Attrs: null_pointer_is_valid sspstrong uwtable
define internal i32 @dissect_802154_eb_filter(ptr noundef %0, ptr noundef %1, ptr noundef %2, ptr noundef %3) #0 {
  %5 = alloca ptr, align 8
  %6 = alloca ptr, align 8
  %7 = alloca ptr, align 8
  %8 = alloca ptr, align 8
  %9 = alloca i8, align 1
  %10 = alloca i8, align 1
  %11 = alloca ptr, align 8
  %12 = alloca i32, align 4
  store ptr %0, ptr %5, align 8
  store ptr %1, ptr %6, align 8
  store ptr %2, ptr %7, align 8
  store ptr %3, ptr %8, align 8
  call void @llvm.lifetime.start.p0(i64 1, ptr %9) #17
  call void @llvm.lifetime.start.p0(i64 1, ptr %10) #17
  call void @llvm.lifetime.start.p0(i64 8, ptr %11) #17
  call void @llvm.lifetime.start.p0(i64 4, ptr %12) #17
  store i32 0, ptr %12, align 4
  %13 = load ptr, ptr %5, align 8
  %14 = load ptr, ptr %7, align 8
  %15 = load i32, ptr @hf_ieee802154_psie_eb_filter, align 4
  %16 = load i32, ptr @ett_ieee802154_eb_filter, align 4
  %17 = call ptr @ieee802154_create_psie_tree(ptr noundef %13, ptr noundef %14, i32 noundef %15, i32 noundef %16)
  store ptr %17, ptr %11, align 8
  %18 = load i32, ptr %12, align 4
  %19 = add i32 %18, 2
  store i32 %19, ptr %12, align 4
  %20 = load ptr, ptr %5, align 8
  %21 = load i32, ptr %12, align 4
  %22 = call zeroext i8 @tvb_get_uint8(ptr noundef %20, i32 noundef %21)
  store i8 %22, ptr %9, align 1
  %23 = load ptr, ptr %11, align 8
  %24 = load ptr, ptr %5, align 8
  %25 = load i32, ptr %12, align 4
  %26 = load i32, ptr @hf_ieee802154_psie_eb_filter, align 4
  %27 = load i32, ptr @ett_ieee802154_eb_filter_bitmap, align 4
  %28 = call ptr @proto_tree_add_bitmask(ptr noundef %23, ptr noundef %24, i32 noundef %25, i32 noundef %26, i32 noundef %27, ptr noundef @dissect_802154_eb_filter.fields_eb_filter, i32 noundef 0)
  %29 = load i32, ptr %12, align 4
  %30 = add i32 %29, 1
  store i32 %30, ptr %12, align 4
  %31 = load i8, ptr %9, align 1
  %32 = zext i8 %31 to i32
  %33 = and i32 %32, 2
  %34 = icmp ne i32 %33, 0
  br i1 %34, label %35, label %43

35:                                               ; preds = %4
  %36 = load ptr, ptr %11, align 8
  %37 = load i32, ptr @hf_ieee802154_psie_eb_filter_lqi_min, align 4
  %38 = load ptr, ptr %5, align 8
  %39 = load i32, ptr %12, align 4
  %40 = call ptr @proto_tree_add_item(ptr noundef %36, i32 noundef %37, ptr noundef %38, i32 noundef %39, i32 noundef 1, i32 noundef 0)
  %41 = load i32, ptr %12, align 4
  %42 = add i32 %41, 1
  store i32 %42, ptr %12, align 4
  br label %43

43:                                               ; preds = %35, %4
  %44 = load i8, ptr %9, align 1
  %45 = zext i8 %44 to i32
  %46 = and i32 %45, 4
  %47 = icmp ne i32 %46, 0
  br i1 %47, label %48, label %56

48:                                               ; preds = %43
  %49 = load ptr, ptr %11, align 8
  %50 = load i32, ptr @hf_ieee802154_psie_eb_filter_percent_prob, align 4
  %51 = load ptr, ptr %5, align 8
  %52 = load i32, ptr %12, align 4
  %53 = call ptr @proto_tree_add_item(ptr noundef %49, i32 noundef %50, ptr noundef %51, i32 noundef %52, i32 noundef 1, i32 noundef 0)
  %54 = load i32, ptr %12, align 4
  %55 = add i32 %54, 1
  store i32 %55, ptr %12, align 4
  br label %56

56:                                               ; preds = %48, %43
  %57 = load i8, ptr %9, align 1
  %58 = zext i8 %57 to i32
  %59 = and i32 %58, 24
  %60 = ashr i32 %59, 3
  %61 = trunc i32 %60 to i8
  store i8 %61, ptr %10, align 1
  %62 = load i8, ptr %10, align 1
  %63 = icmp ne i8 %62, 0
  br i1 %63, label %64, label %76

64:                                               ; preds = %56
  %65 = load ptr, ptr %11, align 8
  %66 = load i32, ptr @hf_ieee802154_psie_eb_filter_attr_id_bitmap, align 4
  %67 = load ptr, ptr %5, align 8
  %68 = load i32, ptr %12, align 4
  %69 = load i8, ptr %10, align 1
  %70 = zext i8 %69 to i32
  %71 = call ptr @proto_tree_add_item(ptr noundef %65, i32 noundef %66, ptr noundef %67, i32 noundef %68, i32 noundef %70, i32 noundef -2147483648)
  %72 = load i8, ptr %10, align 1
  %73 = zext i8 %72 to i32
  %74 = load i32, ptr %12, align 4
  %75 = add i32 %74, %73
  store i32 %75, ptr %12, align 4
  br label %76

76:                                               ; preds = %64, %56
  %77 = load i32, ptr %12, align 4
  call void @llvm.lifetime.end.p0(i64 4, ptr %12) #17
  call void @llvm.lifetime.end.p0(i64 8, ptr %11) #17
  call void @llvm.lifetime.end.p0(i64 1, ptr %10) #17
  call void @llvm.lifetime.end.p0(i64 1, ptr %9) #17
  ret i32 %77
}