; Function Attrs: null_pointer_is_valid sspstrong uwtable
define internal range(i32 3, 9) i32 @dissect_802154_eb_filter(ptr noundef %0, ptr readnone captures(none) %1, ptr noundef %2, ptr readnone captures(none) %3) #0 {
  %5 = load i32, ptr @hf_ieee802154_psie_eb_filter, align 4
  %6 = load i32, ptr @ett_ieee802154_eb_filter, align 4
  %7 = tail call fastcc ptr @ieee802154_create_psie_tree(ptr noundef %0, ptr noundef %2, i32 noundef %5, i32 noundef %6)
  %8 = tail call zeroext i8 @tvb_get_uint8(ptr noundef %0, i32 noundef 2)
  %9 = load i32, ptr @hf_ieee802154_psie_eb_filter, align 4
  %10 = load i32, ptr @ett_ieee802154_eb_filter_bitmap, align 4
  %11 = tail call ptr @proto_tree_add_bitmask(ptr noundef %7, ptr noundef %0, i32 noundef 2, i32 noundef %9, i32 noundef %10, ptr noundef nonnull @dissect_802154_eb_filter.fields_eb_filter, i32 noundef 0)
  %12 = zext i8 %8 to i32
  %13 = and i32 %12, 2
  %.not = icmp eq i32 %13, 0
  br i1 %.not, label %17, label %14

14:                                               ; preds = %4
  %15 = load i32, ptr @hf_ieee802154_psie_eb_filter_lqi_min, align 4
  %16 = tail call ptr @proto_tree_add_item(ptr noundef %7, i32 noundef %15, ptr noundef %0, i32 noundef 3, i32 noundef 1, i32 noundef 0)
  br label %17

17:                                               ; preds = %14, %4
  %.0 = phi i32 [ 4, %14 ], [ 3, %4 ]
  %18 = and i32 %12, 4
  %.not28 = icmp eq i32 %18, 0
  br i1 %.not28, label %23, label %19

19:                                               ; preds = %17
  %20 = load i32, ptr @hf_ieee802154_psie_eb_filter_percent_prob, align 4
  %21 = tail call ptr @proto_tree_add_item(ptr noundef %7, i32 noundef %20, ptr noundef %0, i32 noundef %.0, i32 noundef 1, i32 noundef 0)
  %22 = add nuw nsw i32 %.0, 1
  br label %23

23:                                               ; preds = %19, %17
  %.1 = phi i32 [ %22, %19 ], [ %.0, %17 ]
  %24 = lshr i8 %8, 3
  %25 = and i8 %24, 3
  %.not29 = icmp eq i8 %25, 0
  br i1 %.not29, label %31, label %26

26:                                               ; preds = %23
  %27 = load i32, ptr @hf_ieee802154_psie_eb_filter_attr_id_bitmap, align 4
  %28 = zext nneg i8 %25 to i32
  %29 = tail call ptr @proto_tree_add_item(ptr noundef %7, i32 noundef %27, ptr noundef %0, i32 noundef %.1, i32 noundef %28, i32 noundef -2147483648)
  %30 = add nuw nsw i32 %.1, %28
  br label %31

31:                                               ; preds = %26, %23
  %.2 = phi i32 [ %30, %26 ], [ %.1, %23 ]
  ret i32 %.2
}